target datalayout = "e-m:e-p270:32:32-p271:32:32-p272:64:64-i64:64-i128:128-f80:128-n8:16:32:64-S128"
target triple = "x86_64-unknown-linux-gnu"

%struct.HermesABIRuntimeVTable = type { ptr }
%"class.hermes::vm::RuntimeConfig" = type <{ %"class.hermes::vm::GCConfig", ptr, i32, i32, i8, i8, i8, i8, i8, i8, i8, i8, i8, i8, i8, [5 x i8], %"class.std::__cxx11::basic_string", %"class.std::__cxx11::basic_string", %"class.std::function.5", i8, i8, i8, i8, i32, i8, i8, i8, i8, i32, i8, [7 x i8], %"class.std::shared_ptr.7", i32, i8, [3 x i8] }>
%"class.hermes::vm::GCConfig" = type { i32, i32, i32, double, i32, %"class.hermes::vm::GCSanitizeConfig", i8, i32, %"class.std::__cxx11::basic_string", %"class.hermes::vm::GCTripwireConfig", i8, i8, i8, i8, %"class.std::function.0", %"class.std::function.3" }
%"class.hermes::vm::GCSanitizeConfig" = type { double, i64 }
%"class.hermes::vm::GCTripwireConfig" = type { i32, %"class.std::function" }
%"class.std::function" = type { %"class.std::_Function_base", ptr }
%"class.std::_Function_base" = type { %"union.std::_Any_data", ptr }
%"union.std::_Any_data" = type { %"union.std::_Nocopy_types" }
%"union.std::_Nocopy_types" = type { { i64, i64 } }
%"class.std::function.0" = type { %"class.std::_Function_base", ptr }
%"class.std::function.3" = type { %"class.std::_Function_base", ptr }
%"class.std::__cxx11::basic_string" = type { %"struct.std::__cxx11::basic_string<char>::_Alloc_hider", i64, %union.anon }
%"struct.std::__cxx11::basic_string<char>::_Alloc_hider" = type { ptr }
%union.anon = type { i64, [8 x i8] }
%"class.std::function.5" = type { %"class.std::_Function_base", ptr }
%"class.std::shared_ptr.7" = type { %"class.std::__shared_ptr.8" }
%"class.std::__shared_ptr.8" = type { ptr, %"class.std::__shared_count" }
%"class.std::__shared_count" = type { ptr }
%struct.HermesABIRuntime = type { ptr }
%"class.(anonymous namespace)::HermesABIRuntimeImpl" = type { %struct.HermesABIRuntime, %"class.std::shared_ptr" }
%"class.std::shared_ptr" = type { %"class.std::__shared_ptr" }
%"class.std::__shared_ptr" = type { ptr, %"class.std::__shared_count" }

@_ZN12_GLOBAL__N_120HermesABIRuntimeImpl6vtableE = internal constant %struct.HermesABIRuntimeVTable { ptr @_ZN12_GLOBAL__N_122release_hermes_runtimeEP16HermesABIRuntime }, align 8

; Function Attrs: mustprogress nounwind uwtable
define internal void @_ZN12_GLOBAL__N_120HermesABIRuntimeImplC2ERKN6hermes2vm13RuntimeConfigE(ptr noundef nonnull align 8 dereferenceable(24) %this, ptr noundef nonnull align 8 dereferenceable(373) %runtimeConfig) unnamed_addr #0 align 2 {
entry:
  %this.addr = alloca ptr, align 8
  %runtimeConfig.addr = alloca ptr, align 8
  store ptr %this, ptr %this.addr, align 8
  store ptr %runtimeConfig, ptr %runtimeConfig.addr, align 8
  %this1 = load ptr, ptr %this.addr, align 8
  %vt = getelementptr inbounds %struct.HermesABIRuntime, ptr %this1, i32 0, i32 0
  store ptr @_ZN12_GLOBAL__N_120HermesABIRuntimeImpl6vtableE, ptr %vt, align 8
  %rt = getelementptr inbounds %"class.(anonymous namespace)::HermesABIRuntimeImpl", ptr %this1, i32 0, i32 1
  %0 = load ptr, ptr %runtimeConfig.addr, align 8
  call void @_ZN6hermes2vm7Runtime6createERKNS0_13RuntimeConfigE(ptr sret(%"class.std::shared_ptr") align 8 %rt, ptr noundef nonnull align 8 dereferenceable(373) %0)
  ret void
}

; Function Attrs: mustprogress nounwind uwtable
define internal noundef ptr @_ZN12_GLOBAL__N_119make_hermes_runtimeEPK22HermesABIRuntimeConfig(ptr noundef %config) #0 {
entry:
  %config.addr = alloca ptr, align 8
  %ref.tmp = alloca %"class.hermes::vm::RuntimeConfig", align 8
  store ptr %config, ptr %config.addr, align 8
  %call = call noalias noundef nonnull ptr @_Znwm(i64 noundef 24) #8
  call void @llvm.memset.p0.i64(ptr align 8 %ref.tmp, i8 0, i64 376, i1 false)
  call void @_ZN6hermes2vm13RuntimeConfigC2Ev(ptr noundef nonnull align 8 dereferenceable(373) %ref.tmp)
  call void @_ZN12_GLOBAL__N_120HermesABIRuntimeImplC2ERKN6hermes2vm13RuntimeConfigE(ptr noundef nonnull align 8 dereferenceable(24) %call, ptr noundef nonnull align 8 dereferenceable(373) %ref.tmp)
  call void @_ZN6hermes2vm13RuntimeConfigD2Ev(ptr noundef nonnull align 8 dereferenceable(373) %ref.tmp) #9
  ret ptr %call
}