; Function Attrs: mustprogress nounwind uwtable
define internal noundef nonnull ptr @_ZN12_GLOBAL__N_119make_hermes_runtimeEPK22HermesABIRuntimeConfig(ptr nocapture readnone %config) #1 {
entry:
  %ref.tmp = alloca %"class.hermes::vm::RuntimeConfig", align 8
  %call = tail call noalias noundef nonnull dereferenceable(24) ptr @_Znwm(i64 noundef 24) #8
  call void @llvm.memset.p0.i64(ptr noundef nonnull align 8 dereferenceable(376) %ref.tmp, i8 0, i64 376, i1 false)
  call void @_ZN6hermes2vm13RuntimeConfigC2Ev(ptr noundef nonnull align 8 dereferenceable(373) %ref.tmp)
  store ptr @_ZN12_GLOBAL__N_120HermesABIRuntimeImpl6vtableE, ptr %call, align 8
  %rt.i = getelementptr inbounds i8, ptr %call, i64 8
  call void @_ZN6hermes2vm7Runtime6createERKNS0_13RuntimeConfigE(ptr nonnull sret(%"class.std::shared_ptr") align 8 %rt.i, ptr noundef nonnull align 8 dereferenceable(373) %ref.tmp) #9
  call void @_ZN6hermes2vm13RuntimeConfigD2Ev(ptr noundef nonnull align 8 dereferenceable(373) %ref.tmp) #9
  ret ptr %call
}